(dp0
I0
(lp1
I0
aI3397
aI1847
asI1
(lp2
I1
aI3309
aI1777
asI2
(lp3
I2
aI3228
aI1699
asI3
(lp4
I3
aI3123
aI1601
asI4
(lp5
I4
aI3011
aI1503
asI5
(lp6
I5
aI2938
aI1404
asI6
(lp7
I6
aI2866
aI1327
asI7
(lp8
I7
aI2785
aI1250
asI8
(lp9
I8
aI2697
aI1173
asI9
(lp10
I9
aI2608
aI1102
asI10
(lp11
I10
aI2520
aI1032
asI11
(lp12
I11
aI2431
aI948
asI12
(lp13
I12
aI2359
aI878
asI13
(lp14
I13
aI2270
aI807
asI14
(lp15
I14
aI2189
aI737
asI15
(lp16
I15
aI2117
aI667
asI16
(lp17
I16
aI2020
aI590
asI17
(lp18
I17
aI1924
aI491
asI18
(lp19
I18
aI1851
aI421
asI19
(lp20
I19
aI1763
aI351
asI20
(lp21
I20
aI1674
aI287
asI21
(lp22
I21
aI1578
aI245
asI22
(lp23
I22
aI1457
aI189
asI23
(lp24
I23
aI1344
aI161
asI24
(lp25
I24
aI1207
aI147
asI25
(lp26
I25
aI1054
aI147
asI26
(lp27
I26
aI950
aI161
asI27
(lp28
I27
aI805
aI203
asI28
(lp29
I28
aI668
aI252
asI29
(lp30
I29
aI555
aI316
asI30
(lp31
I30
aI458
aI407
asI31
(lp32
I31
aI378
aI505
asI32
(lp33
I32
aI297
aI611
asI33
(lp34
I33
aI209
aI730
asI34
(lp35
I34
aI152
aI828
asI35
(lp36
I35
aI96
aI948
asI36
(lp37
I36
aI80
aI1081
asI37
(lp38
I37
aI72
aI1215
asI38
(lp39
I38
aI80
aI1320
asI39
(lp40
I39
aI104
aI1454
asI40
(lp41
I40
aI128
aI1580
asI41
(lp42
I41
aI177
aI1720
asI42
(lp43
I42
aI233
aI1812
asI43
(lp44
I43
aI297
aI1917
asI44
(lp45
I44
aI370
aI2008
asI45
(lp46
I45
aI442
aI2093
asI46
(lp47
I46
aI555
aI2149
asI47
(lp48
I47
aI660
aI2219
asI48
(lp49
I48
aI789
aI2268
asI49
(lp50
I49
aI917
aI2310
asI50
(lp51
I50
aI1046
aI2339
asI51
(lp52
I51
aI1175
aI2346
asI52
(lp53
I52
aI1296
aI2346
asI53
(lp54
I53
aI1417
aI2332
asI54
(lp55
I54
aI1529
aI2282
asI55
(lp56
I55
aI1650
aI2212
asI56
(lp57
I56
aI1763
aI2128
asI57
(lp58
I57
aI1867
aI2029
asI58
(lp59
I58
aI1940
aI1952
asI59
(lp60
I59
aI2020
aI1882
asI60
(lp61
I60
aI2109
aI1798
asI61
(lp62
I61
aI2189
aI1727
asI62
(lp63
I62
aI2278
aI1657
asI63
(lp64
I63
aI2367
aI1594
asI64
(lp65
I64
aI2447
aI1524
asI65
(lp66
I65
aI2560
aI1432
asI66
(lp67
I66
aI2656
aI1341
asI67
(lp68
I67
aI2737
aI1243
asI68
(lp69
I68
aI2809
aI1166
asI69
(lp70
I69
aI2922
aI1060
asI70
(lp71
I70
aI3003
aI976
asI71
(lp72
I71
aI3083
aI913
asI72
(lp73
I72
aI3164
aI835
asI73
(lp74
I73
aI3276
aI730
asI74
(lp75
I74
aI3349
aI653
asI75
(lp76
I75
aI3429
aI575
asI76
(lp77
I76
aI3518
aI498
asI77
(lp78
I77
aI3631
aI442
asI78
(lp79
I78
aI3743
aI400
asI79
(lp80
I79
aI3880
aI386
asI80
(lp81
I80
aI4017
aI386
asI81
(lp82
I81
aI4138
aI421
asI82
(lp83
I82
aI4251
aI484
asI83
(lp84
I83
aI4412
aI590
asI84
(lp85
I84
aI4492
aI660
asI85
(lp86
I85
aI4589
aI765
asI86
(lp87
I86
aI4629
aI870
asI87
(lp88
I87
aI4677
aI990
asI88
(lp89
I88
aI4693
aI1109
asI89
(lp90
I89
aI4701
aI1222
asI90
(lp91
I90
aI4718
aI1341
asI91
(lp92
I91
aI4693
aI1454
asI92
(lp93
I92
aI4645
aI1559
asI93
(lp94
I93
aI4589
aI1664
asI94
(lp95
I94
aI4540
aI1756
asI95
(lp96
I95
aI4460
aI1840
asI96
(lp97
I96
aI4387
aI1910
asI97
(lp98
I97
aI4299
aI1973
asI98
(lp99
I98
aI4202
aI2044
asI99
(lp100
I99
aI4098
aI2093
asI100
(lp101
I100
aI3985
aI2114
asI101
(lp102
I101
aI3856
aI2114
asI102
(lp103
I102
aI3735
aI2086
asI103
(lp104
I103
aI3631
aI2037
as.