(dp0
I0
(lp1
I0
aI3260
aI1650
asI1
(lp2
I1
aI3003
aI1461
asI2
(lp3
I2
aI2745
aI1264
asI3
(lp4
I3
aI2528
aI1046
asI4
(lp5
I4
aI2262
aI814
asI5
(lp6
I5
aI1996
aI575
asI6
(lp7
I6
aI1771
aI330
asI7
(lp8
I7
aI1521
aI119
asI8
(lp9
I8
aI1207
aI63
asI9
(lp10
I9
aI893
aI119
asI10
(lp11
I10
aI595
aI245
asI11
(lp12
I11
aI346
aI428
asI12
(lp13
I12
aI161
aI709
asI13
(lp14
I13
aI24
aI983
asI14
(lp15
I14
aI24
aI1327
asI15
(lp16
I15
aI88
aI1650
asI16
(lp17
I16
aI257
aI1931
asI17
(lp18
I17
aI491
aI2142
asI18
(lp19
I18
aI780
aI2296
asI19
(lp20
I19
aI1078
aI2395
asI20
(lp21
I20
aI1384
aI2402
asI21
(lp22
I21
aI1666
aI2275
asI22
(lp23
I22
aI1900
aI2044
asI23
(lp24
I23
aI2093
aI1784
asI24
(lp25
I24
aI2350
aI1573
asI25
(lp26
I25
aI2592
aI1369
asI26
(lp27
I26
aI2817
aI1166
asI27
(lp28
I27
aI3091
aI948
asI28
(lp29
I28
aI3309
aI688
asI29
(lp30
I29
aI3526
aI477
asI30
(lp31
I30
aI3792
aI316
asI31
(lp32
I31
aI4186
aI351
asI32
(lp33
I32
aI4444
aI526
asI33
(lp34
I33
aI4653
aI863
asI34
(lp35
I34
aI4734
aI1166
asI35
(lp36
I35
aI4734
aI1489
asI36
(lp37
I36
aI4581
aI1756
asI37
(lp38
I37
aI4355
aI1987
asI38
(lp39
I38
aI4041
aI2121
asI39
(lp40
I39
aI3735
aI2121
asI40
(lp41
I40
aI3454
aI1980
as.