(dp0
I0
(lp1
I0
aI3357
aI1777
asI1
(lp2
I1
aI3204
aI1629
asI2
(lp3
I2
aI3043
aI1461
asI3
(lp4
I3
aI2898
aI1313
asI4
(lp5
I4
aI2745
aI1173
asI5
(lp6
I5
aI2600
aI1032
asI6
(lp7
I6
aI2423
aI927
asI7
(lp8
I7
aI2230
aI821
asI8
(lp9
I8
aI2028
aI667
asI9
(lp10
I9
aI1892
aI505
asI10
(lp11
I10
aI1722
aI337
asI11
(lp12
I11
aI1529
aI217
asI12
(lp13
I12
aI1312
aI147
asI13
(lp14
I13
aI1070
aI133
asI14
(lp15
I14
aI837
aI196
asI15
(lp16
I15
aI636
aI273
asI16
(lp17
I16
aI450
aI393
asI17
(lp18
I17
aI305
aI554
asI18
(lp19
I18
aI161
aI730
asI19
(lp20
I19
aI96
aI927
asI20
(lp21
I20
aI72
aI1151
asI21
(lp22
I21
aI64
aI1397
asI22
(lp23
I22
aI128
aI1608
asI23
(lp24
I23
aI209
aI1812
asI24
(lp25
I24
aI322
aI1987
asI25
(lp26
I25
aI491
aI2149
asI26
(lp27
I26
aI676
aI2254
asI27
(lp28
I27
aI893
aI2325
asI28
(lp29
I28
aI1103
aI2353
asI29
(lp30
I29
aI1304
aI2353
asI30
(lp31
I30
aI1513
aI2303
asI31
(lp32
I31
aI1714
aI2226
asI32
(lp33
I32
aI1892
aI2086
asI33
(lp34
I33
aI2028
aI1924
asI34
(lp35
I34
aI2173
aI1777
asI35
(lp36
I35
aI2342
aI1629
asI36
(lp37
I36
aI2503
aI1475
asI37
(lp38
I37
aI2648
aI1327
asI38
(lp39
I38
aI2809
aI1180
asI39
(lp40
I39
aI2970
aI983
asI40
(lp41
I40
aI3131
aI821
asI41
(lp42
I41
aI3284
aI674
asI42
(lp43
I42
aI3445
aI533
asI43
(lp44
I43
aI3639
aI421
asI44
(lp45
I44
aI3872
aI358
asI45
(lp46
I45
aI4098
aI386
asI46
(lp47
I46
aI4299
aI519
asI47
(lp48
I47
aI4476
aI660
asI48
(lp49
I48
aI4637
aI835
asI49
(lp50
I49
aI4710
aI1074
asI50
(lp51
I50
aI4726
aI1285
asI51
(lp52
I51
aI4661
aI1503
asI52
(lp53
I52
aI4565
aI1685
asI53
(lp54
I53
aI4436
aI1847
asI54
(lp55
I54
aI4259
aI1987
asI55
(lp56
I55
aI4057
aI2072
asI56
(lp57
I56
aI3848
aI2107
asI57
(lp58
I57
aI3623
aI2058
as.