(dp0
I0
(lp1
I0
aI3019
aI1882
asI1
(lp2
I1
aI3188
aI2029
asI2
(lp3
I2
aI3365
aI2142
asI3
(lp4
I3
aI3542
aI2240
asI4
(lp5
I4
aI3743
aI2317
asI5
(lp6
I5
aI3961
aI2317
asI6
(lp7
I6
aI4178
aI2254
asI7
(lp8
I7
aI4363
aI2170
asI8
(lp9
I8
aI4540
aI2051
asI9
(lp10
I9
aI4710
aI1889
asI10
(lp11
I10
aI4830
aI1699
asI11
(lp12
I11
aI4911
aI1475
asI12
(lp13
I12
aI4927
aI1257
asI13
(lp14
I13
aI4919
aI1032
asI14
(lp15
I14
aI4871
aI807
asI15
(lp16
I15
aI4742
aI590
asI16
(lp17
I16
aI4621
aI400
asI17
(lp18
I17
aI4476
aI259
asI18
(lp19
I18
aI4275
aI161
asI19
(lp20
I19
aI4057
aI112
asI20
(lp21
I20
aI3824
aI105
asI21
(lp22
I21
aI3590
aI168
asI22
(lp23
I22
aI3381
aI287
asI23
(lp24
I23
aI3228
aI421
asI24
(lp25
I24
aI3091
aI568
asI25
(lp26
I25
aI2938
aI716
asI26
(lp27
I26
aI2769
aI842
asI27
(lp28
I27
aI2584
aI983
asI28
(lp29
I28
aI2407
aI1137
asI29
(lp30
I29
aI2246
aI1306
asI30
(lp31
I30
aI2085
aI1482
asI31
(lp32
I31
aI1932
aI1685
asI32
(lp33
I32
aI1787
aI1840
asI33
(lp34
I33
aI1626
aI1966
asI34
(lp35
I34
aI1449
aI2079
asI35
(lp36
I35
aI1247
aI2128
asI36
(lp37
I36
aI1038
aI2107
asI37
(lp38
I37
aI829
aI2015
asI38
(lp39
I38
aI636
aI1889
asI39
(lp40
I39
aI499
aI1741
asI40
(lp41
I40
aI402
aI1566
asI41
(lp42
I41
aI354
aI1362
asI42
(lp43
I42
aI354
aI1123
asI43
(lp44
I43
aI394
aI892
asI44
(lp45
I44
aI555
aI695
asI45
(lp46
I45
aI740
aI533
asI46
(lp47
I46
aI933
aI442
asI47
(lp48
I47
aI1159
aI421
asI48
(lp49
I48
aI1368
aI477
asI49
(lp50
I49
aI1545
aI604
asI50
(lp51
I50
aI1698
aI737
asI51
(lp52
I51
aI1859
aI892
asI52
(lp53
I52
aI2045
aI1060
asI53
(lp54
I53
aI2222
aI1187
asI54
(lp55
I54
aI2407
aI1334
asI55
(lp56
I55
aI2576
aI1482
asI56
(lp57
I56
aI2753
aI1622
asI57
(lp58
I57
aI2914
aI1770
asI58
(lp59
I58
aI3107
aI1903
as.