(dp0
I0
(lp1
I0
aI3413
aI1840
asI1
(lp2
I1
aI3188
aI1615
asI2
(lp3
I2
aI2954
aI1390
asI3
(lp4
I3
aI2721
aI1194
asI4
(lp5
I4
aI2471
aI1018
asI5
(lp6
I5
aI2206
aI800
asI6
(lp7
I6
aI1988
aI561
asI7
(lp8
I7
aI1739
aI372
asI8
(lp9
I8
aI1465
aI238
asI9
(lp10
I9
aI1175
aI161
asI10
(lp11
I10
aI869
aI147
asI11
(lp12
I11
aI563
aI280
asI12
(lp13
I12
aI330
aI505
asI13
(lp14
I13
aI169
aI807
asI14
(lp15
I14
aI80
aI1130
asI15
(lp16
I15
aI88
aI1461
asI16
(lp17
I16
aI201
aI1784
asI17
(lp18
I17
aI410
aI2044
asI18
(lp19
I18
aI660
aI2233
asI19
(lp20
I19
aI958
aI2332
asI20
(lp21
I20
aI1264
aI2360
asI21
(lp22
I21
aI1561
aI2282
asI22
(lp23
I22
aI1827
aI2086
asI23
(lp24
I23
aI2061
aI1875
asI24
(lp25
I24
aI2318
aI1650
asI25
(lp26
I25
aI2560
aI1446
asI26
(lp27
I26
aI2761
aI1222
asI27
(lp28
I27
aI2970
aI990
asI28
(lp29
I28
aI3204
aI737
asI29
(lp30
I29
aI3429
aI526
asI30
(lp31
I30
aI3735
aI393
asI31
(lp32
I31
aI4082
aI407
asI32
(lp33
I32
aI4363
aI561
asI33
(lp34
I33
aI4573
aI786
asI34
(lp35
I34
aI4693
aI1088
asI35
(lp36
I35
aI4677
aI1390
asI36
(lp37
I36
aI4573
aI1692
asI37
(lp38
I37
aI4363
aI1931
asI38
(lp39
I38
aI4082
aI2093
asI39
(lp40
I39
aI3735
aI2065
as.