(dp0
I0
(lp1
I0
aI3405
aI1847
asI1
(lp2
I1
aI3115
aI1538
asI2
(lp3
I2
aI2777
aI1222
asI3
(lp4
I3
aI2431
aI927
asI4
(lp5
I4
aI2093
aI632
asI5
(lp6
I5
aI1803
aI351
asI6
(lp7
I6
aI1441
aI154
asI7
(lp8
I7
aI990
aI168
asI8
(lp9
I8
aI595
aI280
asI9
(lp10
I9
aI241
aI667
asI10
(lp11
I10
aI96
aI1074
asI11
(lp12
I11
aI104
aI1482
asI12
(lp13
I12
aI257
aI1854
asI13
(lp14
I13
aI555
aI2170
asI14
(lp15
I14
aI942
aI2367
asI15
(lp16
I15
aI1384
aI2332
asI16
(lp17
I16
aI1771
aI2198
asI17
(lp18
I17
aI2093
aI1931
asI18
(lp19
I18
aI2423
aI1601
asI19
(lp20
I19
aI2729
aI1313
asI20
(lp21
I20
aI3019
aI1025
asI21
(lp22
I21
aI3301
aI709
asI22
(lp23
I22
aI3647
aI428
asI23
(lp24
I23
aI4090
aI407
asI24
(lp25
I24
aI4420
aI646
asI25
(lp26
I25
aI4669
aI983
asI26
(lp27
I26
aI4718
aI1439
asI27
(lp28
I27
aI4532
aI1826
asI28
(lp29
I28
aI4202
aI2093
asI29
(lp30
I29
aI3751
aI2058
as.